; Function Attrs: mustprogress nounwind uwtable
define hidden void @_ZN14CompilerOracle17print_parse_errorEPcS0_(ptr noundef %0, ptr noundef %1) local_unnamed_addr #2 align 2 {
  %3 = tail call noundef i64 @_ZN9ttyLocker8hold_ttyEv() #19
  %4 = load ptr, ptr @tty, align 8
  tail call void (ptr, ptr, ...) @_ZN12outputStream8print_crEPKcz(ptr noundef nonnull align 8 dereferenceable(56) %4, ptr noundef nonnull @.str.18) #19
  %5 = load ptr, ptr @tty, align 8
  tail call void (ptr, ptr, ...) @_ZN12outputStream8print_crEPKcz(ptr noundef nonnull align 8 dereferenceable(56) %5, ptr noundef nonnull @.str.19, ptr noundef %0) #19
  %6 = load ptr, ptr @tty, align 8
  tail call void (ptr, ptr, ...) @_ZN12outputStream8print_crEPKcz(ptr noundef nonnull align 8 dereferenceable(56) %6, ptr noundef nonnull @.str.20, ptr noundef %1) #19
  %7 = load ptr, ptr @tty, align 8
  tail call void @_ZN12outputStream2crEv(ptr noundef nonnull align 8 dereferenceable(56) %7) #19
  %8 = load ptr, ptr @tty, align 8
  tail call void (ptr, ptr, ...) @_ZN12outputStream8print_crEPKcz(ptr noundef nonnull align 8 dereferenceable(56) %8, ptr noundef nonnull @.str.76) #19
  %9 = load ptr, ptr @tty, align 8
  tail call void (ptr, ptr, ...) @_ZN12outputStream8print_crEPKcz(ptr noundef nonnull align 8 dereferenceable(56) %9, ptr noundef nonnull @.str.77) #19
  %10 = load ptr, ptr @tty, align 8
  tail call void (ptr, ptr, ...) @_ZN12outputStream8print_crEPKcz(ptr noundef nonnull align 8 dereferenceable(56) %10, ptr noundef nonnull @.str.78) #19
  %11 = load ptr, ptr @tty, align 8
  tail call void @_ZN12outputStream2crEv(ptr noundef nonnull align 8 dereferenceable(56) %11) #19
  tail call void @_ZN9ttyLocker11release_ttyEl(i64 noundef %3) #19
  ret void
}